target datalayout = "e-m:e-p270:32:32-p271:32:32-p272:64:64-i64:64-i128:128-f80:128-n8:16:32:64-S128"
target triple = "x86_64-pc-linux-gnu"

%"struct.net::QuicPacketPublicHeader" = type { i64, i32, i8, i8, i8, i8, %"class.std::vector", ptr }
%"class.std::vector" = type { %"struct.std::_Vector_base" }
%"struct.std::_Vector_base" = type { %"struct.std::_Vector_base<net::QuicVersion, std::allocator<net::QuicVersion>>::_Vector_impl" }
%"struct.std::_Vector_base<net::QuicVersion, std::allocator<net::QuicVersion>>::_Vector_impl" = type { %"struct.std::_Vector_base<net::QuicVersion, std::allocator<net::QuicVersion>>::_Vector_impl_data" }
%"struct.std::_Vector_base<net::QuicVersion, std::allocator<net::QuicVersion>>::_Vector_impl_data" = type { ptr, ptr, ptr }
%"struct.net::QuicPublicResetPacket" = type { %"struct.net::QuicPacketPublicHeader", i64, i64, %"class.net::IPEndPoint" }
%"class.net::IPEndPoint" = type <{ %"class.net::IPAddress", i16, [6 x i8] }>
%"class.net::IPAddress" = type { %"class.std::vector.0" }
%"class.std::vector.0" = type { %"struct.std::_Vector_base.1" }
%"struct.std::_Vector_base.1" = type { %"struct.std::_Vector_base<unsigned char, std::allocator<unsigned char>>::_Vector_impl" }
%"struct.std::_Vector_base<unsigned char, std::allocator<unsigned char>>::_Vector_impl" = type { %"struct.std::_Vector_base<unsigned char, std::allocator<unsigned char>>::_Vector_impl_data" }
%"struct.std::_Vector_base<unsigned char, std::allocator<unsigned char>>::_Vector_impl_data" = type { ptr, ptr, ptr }

@_ZN3net22QuicPacketPublicHeaderC1Ev = unnamed_addr alias void (ptr), ptr @_ZN3net22QuicPacketPublicHeaderC2Ev
@_ZN3net22QuicPacketPublicHeaderD1Ev = unnamed_addr alias void (ptr), ptr @_ZN3net22QuicPacketPublicHeaderD2Ev

; Function Attrs: mustprogress uwtable
define void @_ZN3net21QuicPublicResetPacketC2Ev(ptr noundef nonnull align 8 dereferenceable(96) %0) unnamed_addr #0 align 2 personality ptr @__gxx_personality_v0 {
  %2 = alloca ptr, align 8
  %3 = alloca ptr, align 8
  %4 = alloca i32, align 4
  store ptr %0, ptr %2, align 8, !tbaa !49
  %5 = load ptr, ptr %2, align 8
  %6 = getelementptr inbounds nuw %"struct.net::QuicPublicResetPacket", ptr %5, i32 0, i32 0
  call void @_ZN3net22QuicPacketPublicHeaderC1Ev(ptr noundef nonnull align 8 dereferenceable(48) %6)
  %7 = getelementptr inbounds nuw %"struct.net::QuicPublicResetPacket", ptr %5, i32 0, i32 1
  store i64 0, ptr %7, align 8, !tbaa !51
  %8 = getelementptr inbounds nuw %"struct.net::QuicPublicResetPacket", ptr %5, i32 0, i32 2
  store i64 0, ptr %8, align 8, !tbaa !61
  %9 = getelementptr inbounds nuw %"struct.net::QuicPublicResetPacket", ptr %5, i32 0, i32 3
  invoke void @_ZN3net10IPEndPointC1Ev(ptr noundef nonnull align 8 dereferenceable(26) %9)
          to label %10 unwind label %11

10:                                               ; preds = %1
  ret void

11:                                               ; preds = %1
  %12 = landingpad { ptr, i32 }
          cleanup
  %13 = extractvalue { ptr, i32 } %12, 0
  store ptr %13, ptr %3, align 8
  %14 = extractvalue { ptr, i32 } %12, 1
  store i32 %14, ptr %4, align 4
  call void @_ZN3net22QuicPacketPublicHeaderD1Ev(ptr noundef nonnull align 8 dereferenceable(48) %6) #18
  br label %15

15:                                               ; preds = %11
  %16 = load ptr, ptr %3, align 8
  %17 = load i32, ptr %4, align 4
  %18 = insertvalue { ptr, i32 } poison, ptr %16, 0
  %19 = insertvalue { ptr, i32 } %18, i32 %17, 1
  resume { ptr, i32 } %19
}