; Function Attrs: mustprogress uwtable
define void @_ZN3net21QuicPublicResetPacketC2Ev(ptr noundef nonnull align 8 dereferenceable(96) %0) unnamed_addr #3 align 2 personality ptr @__gxx_personality_v0 {
  tail call void @_ZN3net22QuicPacketPublicHeaderC1Ev(ptr noundef nonnull align 8 dereferenceable(48) %0)
  %2 = getelementptr inbounds nuw i8, ptr %0, i64 48
  %3 = getelementptr inbounds nuw i8, ptr %0, i64 64
  tail call void @llvm.memset.p0.i64(ptr noundef nonnull align 8 dereferenceable(16) %2, i8 0, i64 16, i1 false)
  invoke void @_ZN3net10IPEndPointC1Ev(ptr noundef nonnull align 8 dereferenceable(26) %3)
          to label %4 unwind label %5

4:                                                ; preds = %1
  ret void

5:                                                ; preds = %1
  %6 = landingpad { ptr, i32 }
          cleanup
  tail call void @_ZN3net22QuicPacketPublicHeaderD1Ev(ptr noundef nonnull align 8 dereferenceable(48) %0) #30
  resume { ptr, i32 } %6
}